target datalayout = "e-m:e-p270:32:32-p271:32:32-p272:64:64-i64:64-i128:128-f80:128-n8:16:32:64-S128"
target triple = "x86_64-pc-linux-gnu"

%struct.VVCTask = type { %union.anon.2, i32, i32, i32, i32, ptr, %struct.ProgressListener, [2 x [29 x %struct.ProgressListener]], ptr, ptr, i32, [10 x i8], i8 }
%union.anon.2 = type { %struct.FFTask }
%struct.FFTask = type { ptr, i32 }
%struct.ProgressListener = type { %struct.VVCProgressListener, ptr, ptr }
%struct.VVCProgressListener = type { i32, i32, ptr, ptr }
%struct.VVCFrameContext = type { ptr, [17 x %struct.VVCFrame], ptr, ptr, %struct.VVCFrameParamSets, ptr, i32, i32, ptr, %struct.VVCDSPContext, %struct.VideoDSPContext, ptr, i64, ptr, ptr, ptr, ptr, %struct.anon }
%struct.VVCFrame = type { ptr, ptr, ptr, ptr, ptr, ptr, i32, i32, i32, %struct.VVCWindow, i32, i32, ptr, ptr, i16, i8, ptr }
%struct.VVCWindow = type { i16, i16, i16, i16 }
%struct.VVCFrameParamSets = type { ptr, ptr, %struct.VVCPH, [8 x ptr], %struct.VVCLMCS, ptr }
%struct.VVCPH = type { ptr, ptr, i32, i32, i8, [3 x i16], i8, [3 x i16], %struct.PredWeightTable }
%struct.PredWeightTable = type { [2 x i8], [2 x i8], [2 x [2 x [15 x i8]]], [2 x [3 x [15 x i16]]], [2 x [3 x [15 x i16]]] }
%struct.VVCLMCS = type { i8, i8, %union.anon, %union.anon, [17 x i16], [16 x i16] }
%union.anon = type { [4096 x i16] }
%struct.VVCDSPContext = type { %struct.VVCInterDSPContext, %struct.VVCIntraDSPContext, %struct.VVCItxDSPContext, %struct.VVCLMCSDSPContext, %struct.VVCLFDSPContext, %struct.VVCSAODSPContext, %struct.VVCALFDSPContext }
%struct.VVCInterDSPContext = type { [2 x [7 x [2 x [2 x ptr]]]], [2 x [7 x [2 x [2 x ptr]]]], [2 x [7 x [2 x [2 x ptr]]]], [2 x [7 x ptr]], [2 x [7 x ptr]], [2 x [7 x ptr]], ptr, ptr, ptr, ptr, ptr, ptr, ptr, ptr, ptr, ptr, ptr, [2 x [2 x ptr]] }
%struct.VVCIntraDSPContext = type { ptr, ptr, ptr, ptr, ptr, ptr, ptr, ptr, ptr, ptr }
%struct.VVCItxDSPContext = type { ptr, ptr, [3 x [6 x ptr]], ptr, ptr }
%struct.VVCLMCSDSPContext = type { ptr }
%struct.VVCLFDSPContext = type { [2 x ptr], [2 x ptr], [2 x ptr] }
%struct.VVCSAODSPContext = type { [9 x ptr], [9 x ptr], [2 x ptr] }
%struct.VVCALFDSPContext = type { [2 x ptr], ptr, ptr, ptr }
%struct.VideoDSPContext = type { ptr, ptr }
%struct.anon = type { ptr, ptr, ptr, ptr, [2 x ptr], [2 x ptr], [2 x ptr], [2 x ptr], [2 x ptr], [3 x ptr], ptr, ptr, [2 x ptr], ptr, ptr, [2 x ptr], ptr, ptr, ptr, [2 x ptr], ptr, [3 x ptr], ptr, [2 x ptr], [2 x ptr], [2 x ptr], [2 x [3 x ptr]], [2 x ptr], [2 x ptr], [3 x ptr], [3 x ptr], [3 x [2 x ptr]], [3 x [2 x ptr]], ptr, ptr, ptr, [3 x ptr], %struct.anon.0 }
%struct.anon.0 = type { i32, i32, i32, i32, i32, i32, i32, i32, i32, i32, i32, i32 }
%struct.VVCFrameThread = type { i32, ptr, ptr, i32, i32, i32, i32, i32, i32, [2 x i32], %union.pthread_mutex_t, %union.pthread_cond_t }
%union.pthread_mutex_t = type { %struct.__pthread_mutex_s }
%struct.__pthread_mutex_s = type { i32, i32, i32, i32, i32, i16, i16, %struct.__pthread_internal_list }
%struct.__pthread_internal_list = type { ptr, ptr }
%union.pthread_cond_t = type { %struct.__pthread_cond_s }
%struct.__pthread_cond_s = type { %union.__atomic_wide_counter, %union.__atomic_wide_counter, [2 x i32], [2 x i32], i32, i32, [2 x i32] }
%union.__atomic_wide_counter = type { i64 }
%struct.VVCContext = type { ptr, ptr, %struct.CodedBitstreamFragment, %struct.VVCParamSets, i32, i32, i32, i32, i32, i32, i32, i16, i16, ptr, ptr, i32, i64, i32 }
%struct.CodedBitstreamFragment = type { ptr, i64, i64, ptr, i32, i32, ptr }
%struct.VVCParamSets = type { [16 x ptr], [64 x ptr], [8 x ptr], [4 x ptr], [8 x ptr], i16 }

@.str.12 = private unnamed_addr constant [30 x i8] c"Assertion %s failed at %s:%d\0A\00", align 1
@.str.14 = private unnamed_addr constant [24 x i8] c"libavcodec/vvc/thread.c\00", align 1
@.str.15 = private unnamed_addr constant [2 x i8] c"s\00", align 1
@.str.16 = private unnamed_addr constant [18 x i8] c"stage == t->stage\00", align 1
@__const.add_task.priorities = private unnamed_addr constant [10 x i32] [i32 0, i32 0, i32 1, i32 2, i32 1, i32 1, i32 1, i32 1, i32 1, i32 1], align 16

; Function Attrs: nounwind uwtable
define internal void @add_task(ptr noundef %0, ptr noundef %1) #0 {
  %3 = alloca ptr, align 8
  %4 = alloca ptr, align 8
  %5 = alloca ptr, align 8
  %6 = alloca ptr, align 8
  %7 = alloca [10 x i32], align 16
  %8 = alloca i32, align 4
  %9 = alloca i32, align 4
  store ptr %0, ptr %3, align 8, !tbaa !4
  store ptr %1, ptr %4, align 8, !tbaa !19
  call void @llvm.lifetime.start.p0(i64 8, ptr %5) #7
  %10 = load ptr, ptr %4, align 8, !tbaa !19
  %11 = getelementptr inbounds nuw %struct.VVCTask, ptr %10, i32 0, i32 5
  %12 = load ptr, ptr %11, align 8, !tbaa !23
  %13 = getelementptr inbounds nuw %struct.VVCFrameContext, ptr %12, i32 0, i32 11
  %14 = load ptr, ptr %13, align 8, !tbaa !31
  store ptr %14, ptr %5, align 8, !tbaa !68
  call void @llvm.lifetime.start.p0(i64 8, ptr %6) #7
  %15 = load ptr, ptr %4, align 8, !tbaa !19
  %16 = getelementptr inbounds nuw %struct.VVCTask, ptr %15, i32 0, i32 0
  store ptr %16, ptr %6, align 8, !tbaa !16
  call void @llvm.lifetime.start.p0(i64 40, ptr %7) #7
  call void @llvm.memcpy.p0.p0.i64(ptr align 16 %7, ptr align 16 @__const.add_task.priorities, i64 40, i1 false)
  %17 = load ptr, ptr %5, align 8, !tbaa !68
  %18 = getelementptr inbounds nuw %struct.VVCFrameThread, ptr %17, i32 0, i32 7
  store i32 1, ptr %8, align 4, !tbaa !9
  %19 = load i32, ptr %8, align 4
  %20 = atomicrmw add ptr %18, i32 %19 seq_cst, align 8
  store i32 %20, ptr %9, align 4
  %21 = load ptr, ptr %4, align 8, !tbaa !19
  %22 = getelementptr inbounds nuw %struct.VVCTask, ptr %21, i32 0, i32 1
  %23 = load i32, ptr %22, align 8, !tbaa !75
  %24 = zext i32 %23 to i64
  %25 = getelementptr inbounds nuw [10 x i32], ptr %7, i64 0, i64 %24
  %26 = load i32, ptr %25, align 4, !tbaa !9
  %27 = load ptr, ptr %6, align 8, !tbaa !16
  %28 = getelementptr inbounds nuw %struct.FFTask, ptr %27, i32 0, i32 1
  store i32 %26, ptr %28, align 8, !tbaa !220
  %29 = load ptr, ptr %3, align 8, !tbaa !4
  %30 = getelementptr inbounds nuw %struct.VVCContext, ptr %29, i32 0, i32 13
  %31 = load ptr, ptr %30, align 8, !tbaa !222
  %32 = load ptr, ptr %6, align 8, !tbaa !16
  call void @ff_executor_execute(ptr noundef %31, ptr noundef %32)
  call void @llvm.lifetime.end.p0(i64 40, ptr %7) #7
  call void @llvm.lifetime.end.p0(i64 8, ptr %6) #7
  call void @llvm.lifetime.end.p0(i64 8, ptr %5) #7
  ret void
}

; Function Attrs: nounwind uwtable
define internal zeroext i8 @task_add_score(ptr noundef %0, i32 noundef %1) #0 {
  %3 = alloca ptr, align 8
  %4 = alloca i32, align 4
  %5 = alloca i8, align 1
  %6 = alloca i8, align 1
  store ptr %0, ptr %3, align 8, !tbaa !19
  store i32 %1, ptr %4, align 4, !tbaa !9
  %7 = load ptr, ptr %3, align 8, !tbaa !19
  %8 = getelementptr inbounds nuw %struct.VVCTask, ptr %7, i32 0, i32 11
  %9 = load i32, ptr %4, align 4, !tbaa !9
  %10 = zext i32 %9 to i64
  %11 = getelementptr inbounds nuw [10 x i8], ptr %8, i64 0, i64 %10
  store i8 1, ptr %5, align 1, !tbaa !109
  %12 = load i8, ptr %5, align 1
  %13 = atomicrmw add ptr %11, i8 %12 seq_cst, align 1
  store i8 %13, ptr %6, align 1
  %14 = load i8, ptr %6, align 1, !tbaa !109
  %15 = zext i8 %14 to i32
  %16 = add nsw i32 %15, 1
  %17 = trunc i32 %16 to i8
  ret i8 %17
}

; Function Attrs: nounwind uwtable
define internal void @frame_thread_add_score(ptr noundef %0, ptr noundef %1, i32 noundef %2, i32 noundef %3, i32 noundef %4) #0 {
  %6 = alloca ptr, align 8
  %7 = alloca ptr, align 8
  %8 = alloca i32, align 4
  %9 = alloca i32, align 4
  %10 = alloca i32, align 4
  %11 = alloca ptr, align 8
  %12 = alloca i8, align 1
  %13 = alloca i32, align 4
  store ptr %0, ptr %6, align 8, !tbaa !4
  store ptr %1, ptr %7, align 8, !tbaa !68
  store i32 %2, ptr %8, align 4, !tbaa !9
  store i32 %3, ptr %9, align 4, !tbaa !9
  store i32 %4, ptr %10, align 4, !tbaa !9
  call void @llvm.lifetime.start.p0(i64 8, ptr %11) #7
  %14 = load ptr, ptr %7, align 8, !tbaa !68
  %15 = getelementptr inbounds nuw %struct.VVCFrameThread, ptr %14, i32 0, i32 2
  %16 = load ptr, ptr %15, align 8, !tbaa !103
  %17 = load ptr, ptr %7, align 8, !tbaa !68
  %18 = getelementptr inbounds nuw %struct.VVCFrameThread, ptr %17, i32 0, i32 4
  %19 = load i32, ptr %18, align 4, !tbaa !87
  %20 = load i32, ptr %9, align 4, !tbaa !9
  %21 = mul nsw i32 %19, %20
  %22 = sext i32 %21 to i64
  %23 = getelementptr inbounds %struct.VVCTask, ptr %16, i64 %22
  %24 = load i32, ptr %8, align 4, !tbaa !9
  %25 = sext i32 %24 to i64
  %26 = getelementptr inbounds %struct.VVCTask, ptr %23, i64 %25
  store ptr %26, ptr %11, align 8, !tbaa !19
  call void @llvm.lifetime.start.p0(i64 1, ptr %12) #7
  %27 = load i32, ptr %8, align 4, !tbaa !9
  %28 = icmp slt i32 %27, 0
  br i1 %28, label %44, label %29

29:                                               ; preds = %5
  %30 = load i32, ptr %8, align 4, !tbaa !9
  %31 = load ptr, ptr %7, align 8, !tbaa !68
  %32 = getelementptr inbounds nuw %struct.VVCFrameThread, ptr %31, i32 0, i32 4
  %33 = load i32, ptr %32, align 4, !tbaa !87
  %34 = icmp sge i32 %30, %33
  br i1 %34, label %44, label %35

35:                                               ; preds = %29
  %36 = load i32, ptr %9, align 4, !tbaa !9
  %37 = icmp slt i32 %36, 0
  br i1 %37, label %44, label %38

38:                                               ; preds = %35
  %39 = load i32, ptr %9, align 4, !tbaa !9
  %40 = load ptr, ptr %7, align 8, !tbaa !68
  %41 = getelementptr inbounds nuw %struct.VVCFrameThread, ptr %40, i32 0, i32 5
  %42 = load i32, ptr %41, align 8, !tbaa !94
  %43 = icmp sge i32 %39, %42
  br i1 %43, label %44, label %45

44:                                               ; preds = %38, %35, %29, %5
  store i32 1, ptr %13, align 4
  br label %75

45:                                               ; preds = %38
  %46 = load ptr, ptr %11, align 8, !tbaa !19
  %47 = load i32, ptr %10, align 4, !tbaa !9
  %48 = call zeroext i8 @task_add_score(ptr noundef %46, i32 noundef %47)
  store i8 %48, ptr %12, align 1, !tbaa !109
  %49 = load ptr, ptr %11, align 8, !tbaa !19
  %50 = load i32, ptr %10, align 4, !tbaa !9
  %51 = load i8, ptr %12, align 1, !tbaa !109
  %52 = call i32 @task_has_target_score(ptr noundef %49, i32 noundef %50, i8 noundef zeroext %51)
  %53 = icmp ne i32 %52, 0
  br i1 %53, label %54, label %74

54:                                               ; preds = %45
  br label %55

55:                                               ; preds = %54
  %56 = load ptr, ptr %6, align 8, !tbaa !4
  %57 = icmp ne ptr %56, null
  br i1 %57, label %59, label %58

58:                                               ; preds = %55
  call void (ptr, i32, ptr, ...) @av_log(ptr noundef null, i32 noundef 0, ptr noundef @.str.12, ptr noundef @.str.15, ptr noundef @.str.14, i32 noundef 228)
  call void @abort() #8
  unreachable

59:                                               ; preds = %55
  br label %60

60:                                               ; preds = %59
  br label %61

61:                                               ; preds = %60
  br label %62

62:                                               ; preds = %61
  %63 = load i32, ptr %10, align 4, !tbaa !9
  %64 = load ptr, ptr %11, align 8, !tbaa !19
  %65 = getelementptr inbounds nuw %struct.VVCTask, ptr %64, i32 0, i32 1
  %66 = load i32, ptr %65, align 8, !tbaa !75
  %67 = icmp eq i32 %63, %66
  br i1 %67, label %69, label %68

68:                                               ; preds = %62
  call void (ptr, i32, ptr, ...) @av_log(ptr noundef null, i32 noundef 0, ptr noundef @.str.12, ptr noundef @.str.16, ptr noundef @.str.14, i32 noundef 229)
  call void @abort() #8
  unreachable

69:                                               ; preds = %62
  br label %70

70:                                               ; preds = %69
  br label %71

71:                                               ; preds = %70
  %72 = load ptr, ptr %6, align 8, !tbaa !4
  %73 = load ptr, ptr %11, align 8, !tbaa !19
  call void @add_task(ptr noundef %72, ptr noundef %73)
  br label %74

74:                                               ; preds = %71, %45
  store i32 0, ptr %13, align 4
  br label %75

75:                                               ; preds = %74, %44
  call void @llvm.lifetime.end.p0(i64 1, ptr %12) #7
  call void @llvm.lifetime.end.p0(i64 8, ptr %11) #7
  %76 = load i32, ptr %13, align 4
  switch i32 %76, label %78 [
    i32 0, label %77
    i32 1, label %77
  ]

77:                                               ; preds = %75, %75
  ret void

78:                                               ; preds = %75
  unreachable
}