; Function Attrs: nounwind uwtable
define internal fastcc void @frame_thread_add_score(ptr noundef readonly captures(address_is_null) %0, ptr noundef readonly captures(none) %1, i32 noundef %2, i32 noundef %3, i32 noundef range(i32 11, 10) %4) unnamed_addr #0 {
  %6 = getelementptr inbounds nuw i8, ptr %1, i64 16
  %7 = load ptr, ptr %6, align 8, !tbaa !104
  %8 = getelementptr inbounds nuw i8, ptr %1, i64 28
  %9 = load i32, ptr %8, align 4, !tbaa !89
  %10 = mul nsw i32 %9, %3
  %11 = sext i32 %10 to i64
  %12 = getelementptr inbounds %struct.VVCTask, ptr %7, i64 %11
  %13 = sext i32 %2 to i64
  %14 = getelementptr inbounds %struct.VVCTask, ptr %12, i64 %13
  %15 = icmp slt i32 %2, 0
  br i1 %15, label %50, label %16

16:                                               ; preds = %5
  %17 = icmp sge i32 %2, %9
  %18 = icmp slt i32 %3, 0
  %or.cond = or i1 %18, %17
  br i1 %or.cond, label %50, label %19

19:                                               ; preds = %16
  %20 = getelementptr inbounds nuw i8, ptr %1, i64 32
  %21 = load i32, ptr %20, align 8, !tbaa !95
  %.not = icmp slt i32 %3, %21
  br i1 %.not, label %22, label %50

22:                                               ; preds = %19
  %23 = getelementptr inbounds nuw i8, ptr %14, i64 2420
  %24 = zext i32 %4 to i64
  %25 = getelementptr inbounds nuw [10 x i8], ptr %23, i64 0, i64 %24
  %26 = atomicrmw add ptr %25, i8 1 seq_cst, align 1
  %27 = add i8 %26, 1
  %28 = tail call fastcc i32 @task_has_target_score(ptr noundef %14, i32 noundef %4, i8 noundef zeroext %27)
  %.not22 = icmp eq i32 %28, 0
  br i1 %.not22, label %50, label %29

29:                                               ; preds = %22
  %.not23 = icmp eq ptr %0, null
  br i1 %.not23, label %30, label %31

30:                                               ; preds = %29
  tail call void (ptr, i32, ptr, ...) @av_log(ptr noundef null, i32 noundef 0, ptr noundef nonnull @.str.12, ptr noundef nonnull @.str.15, ptr noundef nonnull @.str.14, i32 noundef 228) #7
  tail call void @abort() #8
  unreachable

31:                                               ; preds = %29
  %32 = getelementptr inbounds nuw i8, ptr %14, i64 16
  %33 = load i32, ptr %32, align 8, !tbaa !66
  %34 = icmp eq i32 %4, %33
  br i1 %34, label %36, label %35

35:                                               ; preds = %31
  tail call void (ptr, i32, ptr, ...) @av_log(ptr noundef null, i32 noundef 0, ptr noundef nonnull @.str.12, ptr noundef nonnull @.str.16, ptr noundef nonnull @.str.14, i32 noundef 229) #7
  tail call void @abort() #8
  unreachable

36:                                               ; preds = %31
  %37 = getelementptr inbounds nuw i8, ptr %14, i64 32
  %38 = load ptr, ptr %37, align 8, !tbaa !13
  %39 = getelementptr inbounds nuw i8, ptr %38, i64 21288
  %40 = load ptr, ptr %39, align 8, !tbaa !23
  %41 = getelementptr inbounds nuw i8, ptr %40, i64 40
  %42 = atomicrmw add ptr %41, i32 1 seq_cst, align 8
  %43 = load i32, ptr %32, align 8, !tbaa !66
  %44 = zext i32 %43 to i64
  %45 = getelementptr inbounds nuw [10 x i32], ptr @__const.add_task.priorities, i64 0, i64 %44
  %46 = load i32, ptr %45, align 4, !tbaa !128
  %47 = getelementptr inbounds nuw i8, ptr %14, i64 8
  store i32 %46, ptr %47, align 8, !tbaa !135
  %48 = getelementptr inbounds nuw i8, ptr %0, i64 904
  %49 = load ptr, ptr %48, align 8, !tbaa !138
  tail call void @ff_executor_execute(ptr noundef %49, ptr noundef nonnull %14) #7
  br label %50

50:                                               ; preds = %22, %36, %5, %16, %19
  ret void
}